	.file	"main.c"
	.text
	.globl	add_int
	.type	add_int, @function
add_int:
.LFB0:
	.cfi_startproc
	endbr64
	pushq	%rbp
	.cfi_def_cfa_offset 16
	.cfi_offset 6, -16
	movq	%rsp, %rbp
	.cfi_def_cfa_register 6
	movl	%edi, -4(%rbp)
	movl	%esi, -8(%rbp)
	movl	-4(%rbp), %edx
	movl	-8(%rbp), %eax
	addl	%edx, %eax
	popq	%rbp
	.cfi_def_cfa 7, 8
	ret
	.cfi_endproc
.LFE0:
	.size	add_int, .-add_int
	.globl	sub_int
	.type	sub_int, @function
sub_int:
.LFB1:
	.cfi_startproc
	endbr64
	pushq	%rbp
	.cfi_def_cfa_offset 16
	.cfi_offset 6, -16
	movq	%rsp, %rbp
	.cfi_def_cfa_register 6
	movl	%edi, -4(%rbp)
	movl	%esi, -8(%rbp)
	movl	-4(%rbp), %eax
	subl	-8(%rbp), %eax
	popq	%rbp
	.cfi_def_cfa 7, 8
	ret
	.cfi_endproc
.LFE1:
	.size	sub_int, .-sub_int
	.globl	mul_int
	.type	mul_int, @function
mul_int:
.LFB2:
	.cfi_startproc
	endbr64
	pushq	%rbp
	.cfi_def_cfa_offset 16
	.cfi_offset 6, -16
	movq	%rsp, %rbp
	.cfi_def_cfa_register 6
	movl	%edi, -4(%rbp)
	movl	%esi, -8(%rbp)
	movl	-4(%rbp), %eax
	imull	-8(%rbp), %eax
	popq	%rbp
	.cfi_def_cfa 7, 8
	ret
	.cfi_endproc
.LFE2:
	.size	mul_int, .-mul_int
	.globl	div_int
	.type	div_int, @function
div_int:
.LFB3:
	.cfi_startproc
	endbr64
	pushq	%rbp
	.cfi_def_cfa_offset 16
	.cfi_offset 6, -16
	movq	%rsp, %rbp
	.cfi_def_cfa_register 6
	movl	%edi, -4(%rbp)
	movl	%esi, -8(%rbp)
	movl	-4(%rbp), %eax
	cltd
	idivl	-8(%rbp)
	popq	%rbp
	.cfi_def_cfa 7, 8
	ret
	.cfi_endproc
.LFE3:
	.size	div_int, .-div_int
	.globl	rem_int
	.type	rem_int, @function
rem_int:
.LFB4:
	.cfi_startproc
	endbr64
	pushq	%rbp
	.cfi_def_cfa_offset 16
	.cfi_offset 6, -16
	movq	%rsp, %rbp
	.cfi_def_cfa_register 6
	movl	%edi, -4(%rbp)
	movl	%esi, -8(%rbp)
	movl	-4(%rbp), %eax
	cltd
	idivl	-8(%rbp)
	movl	%edx, %eax
	popq	%rbp
	.cfi_def_cfa 7, 8
	ret
	.cfi_endproc
.LFE4:
	.size	rem_int, .-rem_int
	.globl	shi_int
	.type	shi_int, @function
shi_int:
.LFB5:
	.cfi_startproc
	endbr64
	pushq	%rbp
	.cfi_def_cfa_offset 16
	.cfi_offset 6, -16
	movq	%rsp, %rbp
	.cfi_def_cfa_register 6
	movl	%edi, -4(%rbp)
	movl	-4(%rbp), %eax
	sarl	%eax
	popq	%rbp
	.cfi_def_cfa 7, 8
	ret
	.cfi_endproc
.LFE5:
	.size	shi_int, .-shi_int
	.globl	shi2_int
	.type	shi2_int, @function
shi2_int:
.LFB6:
	.cfi_startproc
	endbr64
	pushq	%rbp
	.cfi_def_cfa_offset 16
	.cfi_offset 6, -16
	movq	%rsp, %rbp
	.cfi_def_cfa_register 6
	movl	%edi, -4(%rbp)
	movl	-4(%rbp), %eax
	sarl	$2, %eax
	popq	%rbp
	.cfi_def_cfa 7, 8
	ret
	.cfi_endproc
.LFE6:
	.size	shi2_int, .-shi2_int
	.globl	add_double
	.type	add_double, @function
add_double:
.LFB7:
	.cfi_startproc
	endbr64
	pushq	%rbp
	.cfi_def_cfa_offset 16
	.cfi_offset 6, -16
	movq	%rsp, %rbp
	.cfi_def_cfa_register 6
	movsd	%xmm0, -8(%rbp)
	movsd	%xmm1, -16(%rbp)
	movsd	-8(%rbp), %xmm0
	addsd	-16(%rbp), %xmm0
	popq	%rbp
	.cfi_def_cfa 7, 8
	ret
	.cfi_endproc
.LFE7:
	.size	add_double, .-add_double
	.globl	sub_double
	.type	sub_double, @function
sub_double:
.LFB8:
	.cfi_startproc
	endbr64
	pushq	%rbp
	.cfi_def_cfa_offset 16
	.cfi_offset 6, -16
	movq	%rsp, %rbp
	.cfi_def_cfa_register 6
	movsd	%xmm0, -8(%rbp)
	movsd	%xmm1, -16(%rbp)
	movsd	-8(%rbp), %xmm0
	subsd	-16(%rbp), %xmm0
	popq	%rbp
	.cfi_def_cfa 7, 8
	ret
	.cfi_endproc
.LFE8:
	.size	sub_double, .-sub_double
	.globl	mul_double
	.type	mul_double, @function
mul_double:
.LFB9:
	.cfi_startproc
	endbr64
	pushq	%rbp
	.cfi_def_cfa_offset 16
	.cfi_offset 6, -16
	movq	%rsp, %rbp
	.cfi_def_cfa_register 6
	movsd	%xmm0, -8(%rbp)
	movsd	%xmm1, -16(%rbp)
	movsd	-8(%rbp), %xmm0
	mulsd	-16(%rbp), %xmm0
	popq	%rbp
	.cfi_def_cfa 7, 8
	ret
	.cfi_endproc
.LFE9:
	.size	mul_double, .-mul_double
	.globl	div_double
	.type	div_double, @function
div_double:
.LFB10:
	.cfi_startproc
	endbr64
	pushq	%rbp
	.cfi_def_cfa_offset 16
	.cfi_offset 6, -16
	movq	%rsp, %rbp
	.cfi_def_cfa_register 6
	movsd	%xmm0, -8(%rbp)
	movsd	%xmm1, -16(%rbp)
	movsd	-8(%rbp), %xmm0
	divsd	-16(%rbp), %xmm0
	popq	%rbp
	.cfi_def_cfa 7, 8
	ret
	.cfi_endproc
.LFE10:
	.size	div_double, .-div_double
	.globl	main
	.type	main, @function
main:
.LFB11:
	.cfi_startproc
	endbr64
	pushq	%rbp
	.cfi_def_cfa_offset 16
	.cfi_offset 6, -16
	movq	%rsp, %rbp
	.cfi_def_cfa_register 6
	subq	$32, %rsp
	movl	$10, -24(%rbp)
	movl	$3, -20(%rbp)
	movsd	.LC0(%rip), %xmm0
	movsd	%xmm0, -16(%rbp)
	movsd	.LC1(%rip), %xmm0
	movsd	%xmm0, -8(%rbp)
	movl	-20(%rbp), %edx
	movl	-24(%rbp), %eax
	movl	%edx, %esi
	movl	%eax, %edi
	call	add_int
	movl	-20(%rbp), %edx
	movl	-24(%rbp), %eax
	movl	%edx, %esi
	movl	%eax, %edi
	call	sub_int
	movl	-20(%rbp), %edx
	movl	-24(%rbp), %eax
	movl	%edx, %esi
	movl	%eax, %edi
	call	mul_int
	movl	-20(%rbp), %edx
	movl	-24(%rbp), %eax
	movl	%edx, %esi
	movl	%eax, %edi
	call	div_int
	movl	-20(%rbp), %edx
	movl	-24(%rbp), %eax
	movl	%edx, %esi
	movl	%eax, %edi
	call	rem_int
	movl	-24(%rbp), %eax
	movl	%eax, %edi
	call	shi_int
	movl	-24(%rbp), %eax
	movl	%eax, %edi
	call	shi2_int
	movsd	-8(%rbp), %xmm0
	movq	-16(%rbp), %rax
	movapd	%xmm0, %xmm1
	movq	%rax, %xmm0
	call	add_double
	movsd	-8(%rbp), %xmm0
	movq	-16(%rbp), %rax
	movapd	%xmm0, %xmm1
	movq	%rax, %xmm0
	call	sub_double
	movsd	-8(%rbp), %xmm0
	movq	-16(%rbp), %rax
	movapd	%xmm0, %xmm1
	movq	%rax, %xmm0
	call	mul_double
	movsd	-8(%rbp), %xmm0
	movq	-16(%rbp), %rax
	movapd	%xmm0, %xmm1
	movq	%rax, %xmm0
	call	div_double
	movl	$0, %eax
	leave
	.cfi_def_cfa 7, 8
	ret
	.cfi_endproc
.LFE11:
	.size	main, .-main
	.section	.rodata
	.align 8
.LC0:
	.long	0
	.long	1076101120
	.align 8
.LC1:
	.long	0
	.long	1074266112
	.ident	"GCC: (Ubuntu 9.3.0-10ubuntu2) 9.3.0"
	.section	.note.GNU-stack,"",@progbits
	.section	.note.gnu.property,"a"
	.align 8
	.long	 1f - 0f
	.long	 4f - 1f
	.long	 5
0:
	.string	 "GNU"
1:
	.align 8
	.long	 0xc0000002
	.long	 3f - 2f
2:
	.long	 0x3
3:
	.align 8
4:
